(lp0
(lp1
I1
aI2
aI3
aI4
aI5
aI6
aI7
aI8
aI9
aI10
aI11
aI12
aI13
aI14
aa(lp2
F31.29813575744629
aF-31.28476905822754
aF-948.63720703125
aF-42.94205093383789
aF-18.63252830505371
aF-340.4381103515625
aF-130.91439819335938
aF-1824.6033935546875
aF-1581.5416259765625
aF-2726.770751953125
aF-150.0
aF59.74502944946289
aF-1470.611328125
aF62.273902893066406
aa.